; Function Attrs: nofree nounwind memory(argmem: read) uwtable
define i32 @stbtt_FindMatchingFont(ptr noundef readonly captures(none) %0, ptr noundef readonly captures(none) %1, i32 noundef %2) local_unnamed_addr #29 {
  %4 = tail call i32 @stbtt_GetFontOffsetForIndex_internal(ptr noundef readonly %0, i32 noundef 0)
  %5 = icmp slt i32 %4, 0
  br i1 %5, label %stbtt_FindMatchingFont_internal.exit, label %.lr.ph.i

6:                                                ; preds = %.lr.ph.i
  %7 = add nuw nsw i32 %.01218.i, 1
  %8 = tail call i32 @stbtt_GetFontOffsetForIndex_internal(ptr noundef readonly %0, i32 noundef %7)
  %9 = icmp slt i32 %8, 0
  br i1 %9, label %stbtt_FindMatchingFont_internal.exit, label %.lr.ph.i

.lr.ph.i:                                         ; preds = %3, %6
  %10 = phi i32 [ %8, %6 ], [ %4, %3 ]
  %.01218.i = phi i32 [ %7, %6 ], [ 0, %3 ]
  %11 = tail call i32 @stbtt__matches(ptr noundef readonly %0, i32 noundef %10, ptr noundef readonly %1, i32 noundef %2)
  %.not.i = icmp eq i32 %11, 0
  br i1 %.not.i, label %6, label %stbtt_FindMatchingFont_internal.exit

stbtt_FindMatchingFont_internal.exit:             ; preds = %6, %.lr.ph.i, %3
  %.lcssa.i = phi i32 [ %4, %3 ], [ %10, %.lr.ph.i ], [ %8, %6 ]
  ret i32 %.lcssa.i
}